target datalayout = "e-m:e-p270:32:32-p271:32:32-p272:64:64-i64:64-i128:128-f80:128-n8:16:32:64-S128"
target triple = "x86_64-unknown-linux-gnu"

%struct.PreparedDictionary = type { i32, i32, i32, i32, i32, i32 }
%struct.CompoundDictionary = type { i64, i64, [16 x ptr], [16 x ptr], [16 x i64], i64, [16 x ptr] }

; Function Attrs: nounwind uwtable
define hidden i32 @AttachPreparedDictionary(ptr noundef %compound, ptr noundef %dictionary) #0 {
entry:
  %p.addr.i = alloca ptr, align 8
  %v.i = alloca ptr, align 8
  %retval = alloca i32, align 4
  %compound.addr = alloca ptr, align 8
  %dictionary.addr = alloca ptr, align 8
  %length = alloca i64, align 8
  %index = alloca i64, align 8
  %slot_offsets = alloca ptr, align 8
  %heads = alloca ptr, align 8
  %items = alloca ptr, align 8
  %tail = alloca ptr, align 8
  store ptr %compound, ptr %compound.addr, align 8
  store ptr %dictionary, ptr %dictionary.addr, align 8
  store i64 0, ptr %length, align 8
  store i64 0, ptr %index, align 8
  %0 = load ptr, ptr %compound.addr, align 8
  %num_chunks = getelementptr inbounds %struct.CompoundDictionary, ptr %0, i32 0, i32 0
  %1 = load i64, ptr %num_chunks, align 8
  %cmp = icmp eq i64 %1, 15
  br i1 %cmp, label %if.then, label %if.end

if.then:                                          ; preds = %entry
  store i32 0, ptr %retval, align 4
  br label %return

if.end:                                           ; preds = %entry
  %2 = load ptr, ptr %dictionary.addr, align 8
  %tobool = icmp ne ptr %2, null
  br i1 %tobool, label %if.end2, label %if.then1

if.then1:                                         ; preds = %if.end
  store i32 0, ptr %retval, align 4
  br label %return

if.end2:                                          ; preds = %if.end
  %3 = load ptr, ptr %dictionary.addr, align 8
  %source_size = getelementptr inbounds %struct.PreparedDictionary, ptr %3, i32 0, i32 2
  %4 = load i32, ptr %source_size, align 4
  %conv = zext i32 %4 to i64
  store i64 %conv, ptr %length, align 8
  %5 = load ptr, ptr %compound.addr, align 8
  %num_chunks3 = getelementptr inbounds %struct.CompoundDictionary, ptr %5, i32 0, i32 0
  %6 = load i64, ptr %num_chunks3, align 8
  store i64 %6, ptr %index, align 8
  %7 = load i64, ptr %length, align 8
  %8 = load ptr, ptr %compound.addr, align 8
  %total_size = getelementptr inbounds %struct.CompoundDictionary, ptr %8, i32 0, i32 1
  %9 = load i64, ptr %total_size, align 8
  %add = add i64 %9, %7
  store i64 %add, ptr %total_size, align 8
  %10 = load ptr, ptr %dictionary.addr, align 8
  %11 = load ptr, ptr %compound.addr, align 8
  %chunks = getelementptr inbounds %struct.CompoundDictionary, ptr %11, i32 0, i32 2
  %12 = load i64, ptr %index, align 8
  %arrayidx = getelementptr inbounds [16 x ptr], ptr %chunks, i64 0, i64 %12
  store ptr %10, ptr %arrayidx, align 8
  %13 = load ptr, ptr %compound.addr, align 8
  %total_size4 = getelementptr inbounds %struct.CompoundDictionary, ptr %13, i32 0, i32 1
  %14 = load i64, ptr %total_size4, align 8
  %15 = load ptr, ptr %compound.addr, align 8
  %chunk_offsets = getelementptr inbounds %struct.CompoundDictionary, ptr %15, i32 0, i32 4
  %16 = load i64, ptr %index, align 8
  %add5 = add i64 %16, 1
  %arrayidx6 = getelementptr inbounds [16 x i64], ptr %chunk_offsets, i64 0, i64 %add5
  store i64 %14, ptr %arrayidx6, align 8
  %17 = load ptr, ptr %dictionary.addr, align 8
  %arrayidx7 = getelementptr inbounds %struct.PreparedDictionary, ptr %17, i64 1
  store ptr %arrayidx7, ptr %slot_offsets, align 8
  %18 = load ptr, ptr %slot_offsets, align 8
  %19 = load ptr, ptr %dictionary.addr, align 8
  %slot_bits = getelementptr inbounds %struct.PreparedDictionary, ptr %19, i32 0, i32 5
  %20 = load i32, ptr %slot_bits, align 4
  %shl = shl i32 1, %20
  %idxprom = zext i32 %shl to i64
  %arrayidx8 = getelementptr inbounds i32, ptr %18, i64 %idxprom
  store ptr %arrayidx8, ptr %heads, align 8
  %21 = load ptr, ptr %heads, align 8
  %22 = load ptr, ptr %dictionary.addr, align 8
  %bucket_bits = getelementptr inbounds %struct.PreparedDictionary, ptr %22, i32 0, i32 4
  %23 = load i32, ptr %bucket_bits, align 4
  %shl9 = shl i32 1, %23
  %idxprom10 = zext i32 %shl9 to i64
  %arrayidx11 = getelementptr inbounds i16, ptr %21, i64 %idxprom10
  store ptr %arrayidx11, ptr %items, align 8
  %24 = load ptr, ptr %items, align 8
  %25 = load ptr, ptr %dictionary.addr, align 8
  %num_items = getelementptr inbounds %struct.PreparedDictionary, ptr %25, i32 0, i32 1
  %26 = load i32, ptr %num_items, align 4
  %idxprom12 = zext i32 %26 to i64
  %arrayidx13 = getelementptr inbounds i32, ptr %24, i64 %idxprom12
  store ptr %arrayidx13, ptr %tail, align 8
  %27 = load ptr, ptr %dictionary.addr, align 8
  %magic = getelementptr inbounds %struct.PreparedDictionary, ptr %27, i32 0, i32 0
  %28 = load i32, ptr %magic, align 4
  %cmp14 = icmp eq i32 %28, -558043680
  br i1 %cmp14, label %if.then16, label %if.else

if.then16:                                        ; preds = %if.end2
  %29 = load ptr, ptr %tail, align 8
  %30 = load ptr, ptr %compound.addr, align 8
  %chunk_source = getelementptr inbounds %struct.CompoundDictionary, ptr %30, i32 0, i32 3
  %31 = load i64, ptr %index, align 8
  %arrayidx17 = getelementptr inbounds [16 x ptr], ptr %chunk_source, i64 0, i64 %31
  store ptr %29, ptr %arrayidx17, align 8
  br label %if.end20

if.else:                                          ; preds = %if.end2
  %32 = load ptr, ptr %tail, align 8
  store ptr %32, ptr %p.addr.i, align 8
  %33 = load ptr, ptr %p.addr.i, align 8
  call void @llvm.memcpy.p0.p0.i64(ptr align 8 %v.i, ptr align 1 %33, i64 8, i1 false)
  %34 = load ptr, ptr %v.i, align 8
  %35 = load ptr, ptr %compound.addr, align 8
  %chunk_source18 = getelementptr inbounds %struct.CompoundDictionary, ptr %35, i32 0, i32 3
  %36 = load i64, ptr %index, align 8
  %arrayidx19 = getelementptr inbounds [16 x ptr], ptr %chunk_source18, i64 0, i64 %36
  store ptr %34, ptr %arrayidx19, align 8
  br label %if.end20

if.end20:                                         ; preds = %if.else, %if.then16
  %37 = load ptr, ptr %compound.addr, align 8
  %num_chunks21 = getelementptr inbounds %struct.CompoundDictionary, ptr %37, i32 0, i32 0
  %38 = load i64, ptr %num_chunks21, align 8
  %inc = add i64 %38, 1
  store i64 %inc, ptr %num_chunks21, align 8
  store i32 1, ptr %retval, align 4
  br label %return

return:                                           ; preds = %if.end20, %if.then1, %if.then
  %39 = load i32, ptr %retval, align 4
  ret i32 %39
}