; Function Attrs: mustprogress nofree norecurse nosync nounwind willreturn memory(argmem: readwrite) uwtable
define hidden range(i32 0, 2) i32 @AttachPreparedDictionary(ptr noundef captures(none) %compound, ptr noundef %dictionary) local_unnamed_addr #2 {
entry:
  %0 = load i64, ptr %compound, align 8
  %cmp = icmp eq i64 %0, 15
  %tobool.not = icmp eq ptr %dictionary, null
  %or.cond = or i1 %tobool.not, %cmp
  br i1 %or.cond, label %return, label %if.end2

if.end2:                                          ; preds = %entry
  %source_size = getelementptr inbounds nuw i8, ptr %dictionary, i64 8
  %1 = load i32, ptr %source_size, align 4
  %conv = zext i32 %1 to i64
  %total_size = getelementptr inbounds nuw i8, ptr %compound, i64 8
  %2 = load i64, ptr %total_size, align 8
  %add = add i64 %2, %conv
  store i64 %add, ptr %total_size, align 8
  %chunks = getelementptr inbounds nuw i8, ptr %compound, i64 16
  %arrayidx = getelementptr inbounds [16 x ptr], ptr %chunks, i64 0, i64 %0
  store ptr %dictionary, ptr %arrayidx, align 8
  %3 = load i64, ptr %total_size, align 8
  %chunk_offsets = getelementptr inbounds nuw i8, ptr %compound, i64 272
  %add5 = add i64 %0, 1
  %arrayidx6 = getelementptr inbounds [16 x i64], ptr %chunk_offsets, i64 0, i64 %add5
  store i64 %3, ptr %arrayidx6, align 8
  %arrayidx7 = getelementptr inbounds nuw i8, ptr %dictionary, i64 24
  %slot_bits = getelementptr inbounds nuw i8, ptr %dictionary, i64 20
  %4 = load i32, ptr %slot_bits, align 4
  %shl = shl nuw i32 1, %4
  %idxprom = zext i32 %shl to i64
  %arrayidx8 = getelementptr inbounds nuw i32, ptr %arrayidx7, i64 %idxprom
  %bucket_bits = getelementptr inbounds nuw i8, ptr %dictionary, i64 16
  %5 = load i32, ptr %bucket_bits, align 4
  %shl9 = shl nuw i32 1, %5
  %idxprom10 = zext i32 %shl9 to i64
  %arrayidx11 = getelementptr inbounds nuw i16, ptr %arrayidx8, i64 %idxprom10
  %num_items = getelementptr inbounds nuw i8, ptr %dictionary, i64 4
  %6 = load i32, ptr %num_items, align 4
  %idxprom12 = zext i32 %6 to i64
  %arrayidx13 = getelementptr inbounds nuw i32, ptr %arrayidx11, i64 %idxprom12
  %7 = load i32, ptr %dictionary, align 4
  %cmp14 = icmp eq i32 %7, -558043680
  br i1 %cmp14, label %if.end20, label %if.else

if.else:                                          ; preds = %if.end2
  %v.i.0.copyload = load ptr, ptr %arrayidx13, align 1
  br label %if.end20

if.end20:                                         ; preds = %if.end2, %if.else
  %v.i.0.copyload.sink = phi ptr [ %v.i.0.copyload, %if.else ], [ %arrayidx13, %if.end2 ]
  %chunk_source18 = getelementptr inbounds nuw i8, ptr %compound, i64 144
  %arrayidx19 = getelementptr inbounds [16 x ptr], ptr %chunk_source18, i64 0, i64 %0
  store ptr %v.i.0.copyload.sink, ptr %arrayidx19, align 8
  %8 = load i64, ptr %compound, align 8
  %inc = add i64 %8, 1
  store i64 %inc, ptr %compound, align 8
  br label %return

return:                                           ; preds = %entry, %if.end20
  %retval.0 = phi i32 [ 1, %if.end20 ], [ 0, %entry ]
  ret i32 %retval.0
}